; Function Attrs: mustprogress uwtable
define noundef zeroext i1 @_ZNK8facebook5velox19HashStringAllocator7isEmptyEv(ptr noundef nonnull align 8 dereferenceable(37416) %this) local_unnamed_addr #0 align 2 {
entry:
  %sizeFromPool_ = getelementptr inbounds i8, ptr %this, i64 37408
  %0 = load i64, ptr %sizeFromPool_, align 8
  %cmp = icmp eq i64 %0, 0
  br i1 %cmp, label %land.rhs, label %land.end

land.rhs:                                         ; preds = %entry
  %call = tail call noundef i64 @_ZNK8facebook5velox19HashStringAllocator16checkConsistencyEv(ptr noundef nonnull align 8 dereferenceable(37416) %this)
  %cmp2 = icmp eq i64 %call, 0
  br label %land.end

land.end:                                         ; preds = %land.rhs, %entry
  %1 = phi i1 [ false, %entry ], [ %cmp2, %land.rhs ]
  ret i1 %1
}